; Function Attrs: nounwind uwtable
define ptr @l___private_Lean_Meta_FunInfo_0__Lean_Meta_updateHasFwdDeps___boxed(ptr noundef %0, ptr noundef %1) local_unnamed_addr #1 {
  %3 = getelementptr i8, ptr %1, i64 8
  %.val16.i = load i64, ptr %3, align 8, !tbaa !12
  %.mask.i = and i64 %.val16.i, 9223372036854775807
  %.not.i8 = icmp eq i64 %.mask.i, 0
  br i1 %.not.i8, label %20, label %4

4:                                                ; preds = %2
  %5 = getelementptr i8, ptr %0, i64 8
  %.val.i = load i64, ptr %5, align 8, !tbaa !12
  %6 = shl i64 %.val.i, 1
  %7 = or disjoint i64 %6, 1
  %8 = inttoptr i64 %7 to ptr
  %9 = and i64 %.val.i, 9223372036854775807
  %10 = shl i64 %.val.i, 3
  %11 = add i64 %10, 24
  %12 = tail call ptr @lean_alloc_object(i64 noundef %11) #5
  store i32 1, ptr %12, align 4, !tbaa !4
  %13 = getelementptr inbounds nuw i8, ptr %12, i64 4
  %14 = load i32, ptr %13, align 4
  %15 = and i32 %14, 65535
  %16 = or disjoint i32 %15, -167772160
  store i32 %16, ptr %13, align 4
  %17 = getelementptr inbounds nuw i8, ptr %12, i64 8
  store i64 0, ptr %17, align 8, !tbaa !12
  %18 = getelementptr inbounds nuw i8, ptr %12, i64 16
  store i64 %9, ptr %18, align 8, !tbaa !12
  %19 = tail call ptr @l_Array_mapFinIdxM_map___at___private_Lean_Meta_FunInfo_0__Lean_Meta_updateHasFwdDeps___spec__1(ptr poison, ptr noundef nonnull readonly %1, ptr noundef %0, ptr noundef nonnull %8, ptr noundef nonnull inttoptr (i64 1 to ptr), ptr nonnull poison, ptr noundef nonnull %12)
  br label %l___private_Lean_Meta_FunInfo_0__Lean_Meta_updateHasFwdDeps.exit

20:                                               ; preds = %2
  %21 = ptrtoint ptr %0 to i64
  %22 = and i64 %21, 1
  %.not19.i = icmp eq i64 %22, 0
  br i1 %.not19.i, label %23, label %l___private_Lean_Meta_FunInfo_0__Lean_Meta_updateHasFwdDeps.exit

23:                                               ; preds = %20
  %.val.i.i = load i32, ptr %0, align 4, !tbaa !4
  %24 = icmp sgt i32 %.val.i.i, 0
  br i1 %24, label %25, label %27, !prof !11

25:                                               ; preds = %23
  %26 = add nuw i32 %.val.i.i, 1
  store i32 %26, ptr %0, align 4, !tbaa !4
  br label %l___private_Lean_Meta_FunInfo_0__Lean_Meta_updateHasFwdDeps.exit

27:                                               ; preds = %23
  %.not.i18.i = icmp eq i32 %.val.i.i, 0
  br i1 %.not.i18.i, label %l___private_Lean_Meta_FunInfo_0__Lean_Meta_updateHasFwdDeps.exit, label %28

28:                                               ; preds = %27
  tail call void @lean_inc_ref_cold(ptr noundef nonnull %0) #5
  br label %l___private_Lean_Meta_FunInfo_0__Lean_Meta_updateHasFwdDeps.exit

l___private_Lean_Meta_FunInfo_0__Lean_Meta_updateHasFwdDeps.exit: ; preds = %4, %20, %25, %27, %28
  %.0.i = phi ptr [ %19, %4 ], [ %0, %28 ], [ %0, %27 ], [ %0, %25 ], [ %0, %20 ]
  %29 = ptrtoint ptr %1 to i64
  %30 = and i64 %29, 1
  %.not = icmp eq i64 %30, 0
  br i1 %.not, label %31, label %lean_dec.exit5

31:                                               ; preds = %l___private_Lean_Meta_FunInfo_0__Lean_Meta_updateHasFwdDeps.exit
  %32 = load i32, ptr %1, align 4, !tbaa !4
  %33 = icmp sgt i32 %32, 1
  br i1 %33, label %34, label %36, !prof !11

34:                                               ; preds = %31
  %35 = add nsw i32 %32, -1
  store i32 %35, ptr %1, align 4, !tbaa !4
  br label %lean_dec.exit5

36:                                               ; preds = %31
  %.not.i = icmp eq i32 %32, 0
  br i1 %.not.i, label %lean_dec.exit5, label %37

37:                                               ; preds = %36
  tail call void @lean_dec_ref_cold(ptr noundef nonnull %1) #5
  br label %lean_dec.exit5

lean_dec.exit5:                                   ; preds = %37, %36, %34, %l___private_Lean_Meta_FunInfo_0__Lean_Meta_updateHasFwdDeps.exit
  %38 = ptrtoint ptr %0 to i64
  %39 = and i64 %38, 1
  %.not9 = icmp eq i64 %39, 0
  br i1 %.not9, label %40, label %lean_dec.exit

40:                                               ; preds = %lean_dec.exit5
  %41 = load i32, ptr %0, align 4, !tbaa !4
  %42 = icmp sgt i32 %41, 1
  br i1 %42, label %43, label %45, !prof !11

43:                                               ; preds = %40
  %44 = add nsw i32 %41, -1
  store i32 %44, ptr %0, align 4, !tbaa !4
  br label %lean_dec.exit

45:                                               ; preds = %40
  %.not.i6 = icmp eq i32 %41, 0
  br i1 %.not.i6, label %lean_dec.exit, label %46

46:                                               ; preds = %45
  tail call void @lean_dec_ref_cold(ptr noundef nonnull %0) #5
  br label %lean_dec.exit

lean_dec.exit:                                    ; preds = %46, %45, %43, %lean_dec.exit5
  ret ptr %.0.i
}